; Function Attrs: nounwind uwtable
define nonnull ptr @l_Lake_Backend_ofNat___boxed(ptr noundef %0) local_unnamed_addr #1 {
  %2 = ptrtoint ptr %0 to i64
  %3 = and i64 %2, 1
  %.not.i3 = icmp eq i64 %3, 0
  br i1 %.not.i3, label %lean_nat_le.exit.i, label %4, !prof !15

4:                                                ; preds = %1
  %.not12.i = icmp ult ptr %0, inttoptr (i64 3 to ptr)
  br i1 %.not12.i, label %lean_dec.exit, label %l_Lake_Backend_ofNat.exit.thread9

lean_nat_le.exit.i:                               ; preds = %1
  %5 = tail call zeroext i1 @lean_nat_big_le(ptr noundef nonnull inttoptr (i64 3 to ptr), ptr noundef %0) #8
  br i1 %5, label %l_Lake_Backend_ofNat.exit, label %l_Lake_Backend_ofNat.exit.thread6

l_Lake_Backend_ofNat.exit.thread9:                ; preds = %4
  %6 = icmp eq ptr %0, inttoptr (i64 3 to ptr)
  %..i11 = select i1 %6, i8 1, i8 2
  br label %lean_dec.exit

l_Lake_Backend_ofNat.exit:                        ; preds = %lean_nat_le.exit.i
  %7 = tail call zeroext i1 @lean_nat_big_eq(ptr noundef %0, ptr noundef nonnull inttoptr (i64 3 to ptr)) #8
  %..i = select i1 %7, i8 1, i8 2
  br label %l_Lake_Backend_ofNat.exit.thread6

l_Lake_Backend_ofNat.exit.thread6:                ; preds = %lean_nat_le.exit.i, %l_Lake_Backend_ofNat.exit
  %.0.i8 = phi i8 [ %..i, %l_Lake_Backend_ofNat.exit ], [ 0, %lean_nat_le.exit.i ]
  %8 = load i32, ptr %0, align 4, !tbaa !4
  %9 = icmp sgt i32 %8, 1
  br i1 %9, label %10, label %12, !prof !9

10:                                               ; preds = %l_Lake_Backend_ofNat.exit.thread6
  %11 = add nsw i32 %8, -1
  store i32 %11, ptr %0, align 4, !tbaa !4
  br label %lean_dec.exit

12:                                               ; preds = %l_Lake_Backend_ofNat.exit.thread6
  %.not.i = icmp eq i32 %8, 0
  br i1 %.not.i, label %lean_dec.exit, label %13

13:                                               ; preds = %12
  tail call void @lean_dec_ref_cold(ptr noundef nonnull %0) #8
  br label %lean_dec.exit

lean_dec.exit:                                    ; preds = %4, %13, %12, %10, %l_Lake_Backend_ofNat.exit.thread9
  %.0.i5 = phi i8 [ %..i11, %l_Lake_Backend_ofNat.exit.thread9 ], [ %.0.i8, %10 ], [ %.0.i8, %12 ], [ %.0.i8, %13 ], [ 0, %4 ]
  %14 = zext nneg i8 %.0.i5 to i64
  %15 = shl nuw nsw i64 %14, 1
  %16 = or disjoint i64 %15, 1
  %17 = inttoptr i64 %16 to ptr
  ret ptr %17
}